ccopy_reg
_reconstructor
p0
(c__main__
account
p1
c__builtin__
object
p2
Ntp3
Rp4
(dp5
S'acno'
p6
I1004
sS'type'
p7
S'C'
p8
sS'name'
p9
S'Yug Khanna'
p10
sS'deposit'
p11
I1400
sb.ccopy_reg
_reconstructor
p0
(c__main__
account
p1
c__builtin__
object
p2
Ntp3
Rp4
(dp5
S'acno'
p6
I1005
sS'type'
p7
S'CURRENT'
p8
sS'name'
p9
S'Nidhi sanghavu'
p10
sS'deposit'
p11
I300
sb.